target datalayout = "e-m:e-p270:32:32-p271:32:32-p272:64:64-i64:64-i128:128-f80:128-n8:16:32:64-S128"
target triple = "x86_64-pc-linux-gnu"

%struct.dbcs_index = type { ptr, i8, i8 }

; Function Attrs: nounwind uwtable
define internal i64 @cp950_decode(ptr noundef %0, ptr noundef %1, ptr noundef %2, i64 noundef %3, ptr noundef %4) #0 {
  %6 = alloca i64, align 8
  %7 = alloca ptr, align 8
  %8 = alloca ptr, align 8
  %9 = alloca ptr, align 8
  %10 = alloca i64, align 8
  %11 = alloca ptr, align 8
  %12 = alloca i8, align 1
  %13 = alloca i32, align 4
  %14 = alloca i32, align 4
  store ptr %0, ptr %7, align 8, !tbaa !3
  store ptr %1, ptr %8, align 8, !tbaa !21
  store ptr %2, ptr %9, align 8, !tbaa !68
  store i64 %3, ptr %10, align 8, !tbaa !28
  store ptr %4, ptr %11, align 8, !tbaa !3
  br label %15

15:                                               ; preds = %197, %195, %5
  %16 = load i64, ptr %10, align 8, !tbaa !28
  %17 = icmp sgt i64 %16, 0
  br i1 %17, label %18, label %198

18:                                               ; preds = %15
  call void @llvm.lifetime.start.p0(i64 1, ptr %12) #9
  %19 = load ptr, ptr %9, align 8, !tbaa !68
  %20 = load ptr, ptr %19, align 8, !tbaa !17
  %21 = getelementptr i8, ptr %20, i64 0
  %22 = load i8, ptr %21, align 1, !tbaa !42
  store i8 %22, ptr %12, align 1, !tbaa !42
  call void @llvm.lifetime.start.p0(i64 4, ptr %13) #9
  %23 = load i8, ptr %12, align 1, !tbaa !42
  %24 = zext i8 %23 to i32
  %25 = icmp slt i32 %24, 128
  br i1 %25, label %26, label %45

26:                                               ; preds = %18
  br label %27

27:                                               ; preds = %26
  %28 = load ptr, ptr %11, align 8, !tbaa !3
  %29 = load i8, ptr %12, align 1, !tbaa !42
  %30 = zext i8 %29 to i32
  %31 = call i32 @_PyUnicodeWriter_WriteChar(ptr noundef %28, i32 noundef %30)
  %32 = icmp slt i32 %31, 0
  br i1 %32, label %33, label %34

33:                                               ; preds = %27
  store i64 -4, ptr %6, align 8
  store i32 1, ptr %14, align 4
  br label %195

34:                                               ; preds = %27
  br label %35

35:                                               ; preds = %34
  br label %36

36:                                               ; preds = %35
  br label %37

37:                                               ; preds = %36
  %38 = load ptr, ptr %9, align 8, !tbaa !68
  %39 = load ptr, ptr %38, align 8, !tbaa !17
  %40 = getelementptr i8, ptr %39, i64 1
  store ptr %40, ptr %38, align 8, !tbaa !17
  %41 = load i64, ptr %10, align 8, !tbaa !28
  %42 = sub i64 %41, 1
  store i64 %42, ptr %10, align 8, !tbaa !28
  br label %43

43:                                               ; preds = %37
  br label %44

44:                                               ; preds = %43
  store i32 2, ptr %14, align 4
  br label %195, !llvm.loop !83

45:                                               ; preds = %18
  br label %46

46:                                               ; preds = %45
  %47 = load i64, ptr %10, align 8, !tbaa !28
  %48 = icmp slt i64 %47, 2
  br i1 %48, label %49, label %50

49:                                               ; preds = %46
  store i64 -2, ptr %6, align 8
  store i32 1, ptr %14, align 4
  br label %195

50:                                               ; preds = %46
  br label %51

51:                                               ; preds = %50
  br label %52

52:                                               ; preds = %51
  %53 = load i8, ptr %12, align 1, !tbaa !42
  %54 = zext i8 %53 to i64
  %55 = getelementptr [256 x %struct.dbcs_index], ptr @cp950ext_decmap, i64 0, i64 %54
  %56 = getelementptr inbounds nuw %struct.dbcs_index, ptr %55, i32 0, i32 0
  %57 = load ptr, ptr %56, align 16, !tbaa !78
  %58 = icmp ne ptr %57, null
  br i1 %58, label %59, label %118

59:                                               ; preds = %52
  %60 = load ptr, ptr %9, align 8, !tbaa !68
  %61 = load ptr, ptr %60, align 8, !tbaa !17
  %62 = getelementptr i8, ptr %61, i64 1
  %63 = load i8, ptr %62, align 1, !tbaa !42
  %64 = zext i8 %63 to i32
  %65 = load i8, ptr %12, align 1, !tbaa !42
  %66 = zext i8 %65 to i64
  %67 = getelementptr [256 x %struct.dbcs_index], ptr @cp950ext_decmap, i64 0, i64 %66
  %68 = getelementptr inbounds nuw %struct.dbcs_index, ptr %67, i32 0, i32 1
  %69 = load i8, ptr %68, align 8, !tbaa !80
  %70 = zext i8 %69 to i32
  %71 = icmp sge i32 %64, %70
  br i1 %71, label %72, label %118

72:                                               ; preds = %59
  %73 = load ptr, ptr %9, align 8, !tbaa !68
  %74 = load ptr, ptr %73, align 8, !tbaa !17
  %75 = getelementptr i8, ptr %74, i64 1
  %76 = load i8, ptr %75, align 1, !tbaa !42
  %77 = zext i8 %76 to i32
  %78 = load i8, ptr %12, align 1, !tbaa !42
  %79 = zext i8 %78 to i64
  %80 = getelementptr [256 x %struct.dbcs_index], ptr @cp950ext_decmap, i64 0, i64 %79
  %81 = getelementptr inbounds nuw %struct.dbcs_index, ptr %80, i32 0, i32 2
  %82 = load i8, ptr %81, align 1, !tbaa !81
  %83 = zext i8 %82 to i32
  %84 = icmp sle i32 %77, %83
  br i1 %84, label %85, label %118

85:                                               ; preds = %72
  %86 = load i8, ptr %12, align 1, !tbaa !42
  %87 = zext i8 %86 to i64
  %88 = getelementptr [256 x %struct.dbcs_index], ptr @cp950ext_decmap, i64 0, i64 %87
  %89 = getelementptr inbounds nuw %struct.dbcs_index, ptr %88, i32 0, i32 0
  %90 = load ptr, ptr %89, align 16, !tbaa !78
  %91 = load ptr, ptr %9, align 8, !tbaa !68
  %92 = load ptr, ptr %91, align 8, !tbaa !17
  %93 = getelementptr i8, ptr %92, i64 1
  %94 = load i8, ptr %93, align 1, !tbaa !42
  %95 = zext i8 %94 to i32
  %96 = load i8, ptr %12, align 1, !tbaa !42
  %97 = zext i8 %96 to i64
  %98 = getelementptr [256 x %struct.dbcs_index], ptr @cp950ext_decmap, i64 0, i64 %97
  %99 = getelementptr inbounds nuw %struct.dbcs_index, ptr %98, i32 0, i32 1
  %100 = load i8, ptr %99, align 8, !tbaa !80
  %101 = zext i8 %100 to i32
  %102 = sub i32 %95, %101
  %103 = sext i32 %102 to i64
  %104 = getelementptr i16, ptr %90, i64 %103
  %105 = load i16, ptr %104, align 2, !tbaa !76
  %106 = zext i16 %105 to i32
  store i32 %106, ptr %13, align 4, !tbaa !19
  %107 = icmp ne i32 %106, 65534
  br i1 %107, label %108, label %118

108:                                              ; preds = %85
  br label %109

109:                                              ; preds = %108
  %110 = load ptr, ptr %11, align 8, !tbaa !3
  %111 = load i32, ptr %13, align 4, !tbaa !19
  %112 = call i32 @_PyUnicodeWriter_WriteChar(ptr noundef %110, i32 noundef %111)
  %113 = icmp slt i32 %112, 0
  br i1 %113, label %114, label %115

114:                                              ; preds = %109
  store i64 -4, ptr %6, align 8
  store i32 1, ptr %14, align 4
  br label %195

115:                                              ; preds = %109
  br label %116

116:                                              ; preds = %115
  br label %117

117:                                              ; preds = %116
  br label %186

118:                                              ; preds = %85, %72, %59, %52
  %119 = load i8, ptr %12, align 1, !tbaa !42
  %120 = zext i8 %119 to i64
  %121 = getelementptr [256 x %struct.dbcs_index], ptr @big5_decmap, i64 0, i64 %120
  %122 = getelementptr inbounds nuw %struct.dbcs_index, ptr %121, i32 0, i32 0
  %123 = load ptr, ptr %122, align 16, !tbaa !78
  %124 = icmp ne ptr %123, null
  br i1 %124, label %125, label %184

125:                                              ; preds = %118
  %126 = load ptr, ptr %9, align 8, !tbaa !68
  %127 = load ptr, ptr %126, align 8, !tbaa !17
  %128 = getelementptr i8, ptr %127, i64 1
  %129 = load i8, ptr %128, align 1, !tbaa !42
  %130 = zext i8 %129 to i32
  %131 = load i8, ptr %12, align 1, !tbaa !42
  %132 = zext i8 %131 to i64
  %133 = getelementptr [256 x %struct.dbcs_index], ptr @big5_decmap, i64 0, i64 %132
  %134 = getelementptr inbounds nuw %struct.dbcs_index, ptr %133, i32 0, i32 1
  %135 = load i8, ptr %134, align 8, !tbaa !80
  %136 = zext i8 %135 to i32
  %137 = icmp sge i32 %130, %136
  br i1 %137, label %138, label %184

138:                                              ; preds = %125
  %139 = load ptr, ptr %9, align 8, !tbaa !68
  %140 = load ptr, ptr %139, align 8, !tbaa !17
  %141 = getelementptr i8, ptr %140, i64 1
  %142 = load i8, ptr %141, align 1, !tbaa !42
  %143 = zext i8 %142 to i32
  %144 = load i8, ptr %12, align 1, !tbaa !42
  %145 = zext i8 %144 to i64
  %146 = getelementptr [256 x %struct.dbcs_index], ptr @big5_decmap, i64 0, i64 %145
  %147 = getelementptr inbounds nuw %struct.dbcs_index, ptr %146, i32 0, i32 2
  %148 = load i8, ptr %147, align 1, !tbaa !81
  %149 = zext i8 %148 to i32
  %150 = icmp sle i32 %143, %149
  br i1 %150, label %151, label %184

151:                                              ; preds = %138
  %152 = load i8, ptr %12, align 1, !tbaa !42
  %153 = zext i8 %152 to i64
  %154 = getelementptr [256 x %struct.dbcs_index], ptr @big5_decmap, i64 0, i64 %153
  %155 = getelementptr inbounds nuw %struct.dbcs_index, ptr %154, i32 0, i32 0
  %156 = load ptr, ptr %155, align 16, !tbaa !78
  %157 = load ptr, ptr %9, align 8, !tbaa !68
  %158 = load ptr, ptr %157, align 8, !tbaa !17
  %159 = getelementptr i8, ptr %158, i64 1
  %160 = load i8, ptr %159, align 1, !tbaa !42
  %161 = zext i8 %160 to i32
  %162 = load i8, ptr %12, align 1, !tbaa !42
  %163 = zext i8 %162 to i64
  %164 = getelementptr [256 x %struct.dbcs_index], ptr @big5_decmap, i64 0, i64 %163
  %165 = getelementptr inbounds nuw %struct.dbcs_index, ptr %164, i32 0, i32 1
  %166 = load i8, ptr %165, align 8, !tbaa !80
  %167 = zext i8 %166 to i32
  %168 = sub i32 %161, %167
  %169 = sext i32 %168 to i64
  %170 = getelementptr i16, ptr %156, i64 %169
  %171 = load i16, ptr %170, align 2, !tbaa !76
  %172 = zext i16 %171 to i32
  store i32 %172, ptr %13, align 4, !tbaa !19
  %173 = icmp ne i32 %172, 65534
  br i1 %173, label %174, label %184

174:                                              ; preds = %151
  br label %175

175:                                              ; preds = %174
  %176 = load ptr, ptr %11, align 8, !tbaa !3
  %177 = load i32, ptr %13, align 4, !tbaa !19
  %178 = call i32 @_PyUnicodeWriter_WriteChar(ptr noundef %176, i32 noundef %177)
  %179 = icmp slt i32 %178, 0
  br i1 %179, label %180, label %181

180:                                              ; preds = %175
  store i64 -4, ptr %6, align 8
  store i32 1, ptr %14, align 4
  br label %195

181:                                              ; preds = %175
  br label %182

182:                                              ; preds = %181
  br label %183

183:                                              ; preds = %182
  br label %185

184:                                              ; preds = %151, %138, %125, %118
  store i64 1, ptr %6, align 8
  store i32 1, ptr %14, align 4
  br label %195

185:                                              ; preds = %183
  br label %186

186:                                              ; preds = %185, %117
  br label %187

187:                                              ; preds = %186
  %188 = load ptr, ptr %9, align 8, !tbaa !68
  %189 = load ptr, ptr %188, align 8, !tbaa !17
  %190 = getelementptr i8, ptr %189, i64 2
  store ptr %190, ptr %188, align 8, !tbaa !17
  %191 = load i64, ptr %10, align 8, !tbaa !28
  %192 = sub i64 %191, 2
  store i64 %192, ptr %10, align 8, !tbaa !28
  br label %193

193:                                              ; preds = %187
  br label %194

194:                                              ; preds = %193
  store i32 0, ptr %14, align 4
  br label %195

195:                                              ; preds = %194, %184, %180, %114, %49, %44, %33
  call void @llvm.lifetime.end.p0(i64 4, ptr %13) #9
  call void @llvm.lifetime.end.p0(i64 1, ptr %12) #9
  %196 = load i32, ptr %14, align 4
  switch i32 %196, label %201 [
    i32 0, label %197
    i32 1, label %199
    i32 2, label %15
  ]

197:                                              ; preds = %195
  br label %15, !llvm.loop !83

198:                                              ; preds = %15
  store i64 0, ptr %6, align 8
  br label %199

199:                                              ; preds = %198, %195
  %200 = load i64, ptr %6, align 8
  ret i64 %200

201:                                              ; preds = %195
  unreachable
}