; Function Attrs: nounwind uwtable
define internal range(i64 -4, 2) i64 @cp950_decode(ptr readnone captures(none) %0, ptr readnone captures(none) %1, ptr noundef captures(none) %2, i64 noundef %3, ptr noundef %4) #0 {
  %6 = icmp sgt i64 %3, 0
  br i1 %6, label %.lr.ph.preheader, label %.thread

.lr.ph.preheader:                                 ; preds = %5
  %.pre = load ptr, ptr %2, align 8, !tbaa !37
  br label %.lr.ph

.lr.ph:                                           ; preds = %.lr.ph.preheader, %59
  %7 = phi ptr [ %61, %59 ], [ %.pre, %.lr.ph.preheader ]
  %.03255 = phi i64 [ %62, %59 ], [ %3, %.lr.ph.preheader ]
  %8 = load i8, ptr %7, align 1, !tbaa !34
  %9 = icmp sgt i8 %8, -1
  br i1 %9, label %10, label %14

10:                                               ; preds = %.lr.ph
  %11 = zext nneg i8 %8 to i32
  %12 = tail call i32 @_PyUnicodeWriter_WriteChar(ptr noundef %4, i32 noundef %11) #7
  %13 = icmp slt i32 %12, 0
  br i1 %13, label %.thread, label %59, !llvm.loop !63

14:                                               ; preds = %.lr.ph
  %15 = icmp eq i64 %.03255, 1
  br i1 %15, label %.thread, label %16

16:                                               ; preds = %14
  %17 = zext i8 %8 to i64
  %18 = getelementptr [256 x %struct.dbcs_index], ptr @cp950ext_decmap, i64 0, i64 %17
  %19 = load ptr, ptr %18, align 16, !tbaa !58
  %.not = icmp eq ptr %19, null
  br i1 %.not, label %38, label %20

20:                                               ; preds = %16
  %21 = getelementptr i8, ptr %7, i64 1
  %22 = load i8, ptr %21, align 1, !tbaa !34
  %23 = zext i8 %22 to i64
  %24 = getelementptr inbounds nuw i8, ptr %18, i64 8
  %25 = load i8, ptr %24, align 8, !tbaa !60
  %26 = zext i8 %25 to i64
  %.not43 = icmp ult i8 %22, %25
  br i1 %.not43, label %38, label %27

27:                                               ; preds = %20
  %28 = getelementptr inbounds nuw i8, ptr %18, i64 9
  %29 = load i8, ptr %28, align 1, !tbaa !61
  %.not44 = icmp ugt i8 %22, %29
  br i1 %.not44, label %38, label %30

30:                                               ; preds = %27
  %31 = sub nsw i64 %23, %26
  %32 = getelementptr i16, ptr %19, i64 %31
  %33 = load i16, ptr %32, align 2, !tbaa !49
  %.not45 = icmp eq i16 %33, -2
  br i1 %.not45, label %38, label %34

34:                                               ; preds = %30
  %35 = zext i16 %33 to i32
  %36 = tail call i32 @_PyUnicodeWriter_WriteChar(ptr noundef %4, i32 noundef %35) #7
  %37 = icmp slt i32 %36, 0
  br i1 %37, label %.thread, label %59

38:                                               ; preds = %30, %27, %20, %16
  %39 = getelementptr [256 x %struct.dbcs_index], ptr @big5_decmap, i64 0, i64 %17
  %40 = load ptr, ptr %39, align 16, !tbaa !58
  %.not46 = icmp eq ptr %40, null
  br i1 %.not46, label %.thread, label %41

41:                                               ; preds = %38
  %42 = getelementptr i8, ptr %7, i64 1
  %43 = load i8, ptr %42, align 1, !tbaa !34
  %44 = zext i8 %43 to i64
  %45 = getelementptr inbounds nuw i8, ptr %39, i64 8
  %46 = load i8, ptr %45, align 8, !tbaa !60
  %47 = zext i8 %46 to i64
  %.not47 = icmp ult i8 %43, %46
  br i1 %.not47, label %.thread, label %48

48:                                               ; preds = %41
  %49 = getelementptr inbounds nuw i8, ptr %39, i64 9
  %50 = load i8, ptr %49, align 1, !tbaa !61
  %.not48 = icmp ugt i8 %43, %50
  br i1 %.not48, label %.thread, label %51

51:                                               ; preds = %48
  %52 = sub nsw i64 %44, %47
  %53 = getelementptr i16, ptr %40, i64 %52
  %54 = load i16, ptr %53, align 2, !tbaa !49
  %.not49 = icmp eq i16 %54, -2
  br i1 %.not49, label %.thread, label %55

55:                                               ; preds = %51
  %56 = zext i16 %54 to i32
  %57 = tail call i32 @_PyUnicodeWriter_WriteChar(ptr noundef %4, i32 noundef %56) #7
  %58 = icmp slt i32 %57, 0
  br i1 %58, label %.thread, label %59

59:                                               ; preds = %55, %34, %10
  %.sink74 = phi i64 [ 1, %10 ], [ 2, %34 ], [ 2, %55 ]
  %.sink = phi i64 [ -1, %10 ], [ -2, %34 ], [ -2, %55 ]
  %60 = load ptr, ptr %2, align 8, !tbaa !37
  %61 = getelementptr i8, ptr %60, i64 %.sink74
  store ptr %61, ptr %2, align 8, !tbaa !37
  %62 = add nsw i64 %.03255, %.sink
  %63 = icmp sgt i64 %62, 0
  br i1 %63, label %.lr.ph, label %.thread

.thread:                                          ; preds = %59, %10, %14, %34, %55, %51, %48, %41, %38, %5
  %.2 = phi i64 [ 0, %5 ], [ 1, %38 ], [ 1, %41 ], [ 1, %48 ], [ 1, %51 ], [ -4, %55 ], [ -4, %34 ], [ -2, %14 ], [ -4, %10 ], [ 0, %59 ]
  ret i64 %.2
}